target datalayout = "e-m:e-p270:32:32-p271:32:32-p272:64:64-i64:64-i128:128-f80:128-n8:16:32:64-S128"
target triple = "x86_64-pc-linux-gnu"

%"struct.zmq::command_t" = type { ptr, i32, %"union.zmq::command_t::args_t", [24 x i8] }
%"union.zmq::command_t::args_t" = type { %struct.anon.16 }
%struct.anon.16 = type { i64, ptr, ptr }
%struct.anon.5 = type { i64 }
%struct.anon.1 = type { ptr }
%struct.anon.2 = type { ptr }
%struct.anon.3 = type { ptr }
%struct.anon.6 = type { ptr }
%struct.anon.17 = type { i64, i64, ptr }
%struct.anon.9 = type { i32, i32 }
%struct.anon.10 = type { ptr }
%struct.anon.11 = type { i32 }
%struct.anon.13 = type { ptr }
%struct.anon.14 = type { ptr }

@stderr = external global ptr, align 8
@.str = private unnamed_addr constant [30 x i8] c"Assertion failed: %s (%s:%d)\0A\00", align 1
@.str.1 = private unnamed_addr constant [6 x i8] c"false\00", align 1
@.str.2 = private unnamed_addr constant [106 x i8] c"generated/home/dtcxzyw/WorkSpace/Projects/compilers/llvm-opt-benchmark/bench/libzmq/libzmq/src/object.cpp\00", align 1

; Function Attrs: mustprogress uwtable
define void @_ZN3zmq8object_t15process_commandERKNS_9command_tE(ptr noundef nonnull align 8 dereferenceable(20) %0, ptr noundef nonnull align 64 dereferenceable(64) %1) #2 align 2 {
  %3 = alloca ptr, align 8
  %4 = alloca ptr, align 8
  store ptr %0, ptr %3, align 8, !tbaa !3
  store ptr %1, ptr %4, align 8, !tbaa !17
  %5 = load ptr, ptr %3, align 8
  %6 = load ptr, ptr %4, align 8, !tbaa !17
  %7 = getelementptr inbounds nuw %"struct.zmq::command_t", ptr %6, i32 0, i32 1
  %8 = load i32, ptr %7, align 8, !tbaa !19
  switch i32 %8, label %174 [
    i32 5, label %9
    i32 6, label %13
    i32 0, label %21
    i32 1, label %25
    i32 2, label %32
    i32 3, label %43
    i32 4, label %54
    i32 7, label %65
    i32 19, label %73
    i32 20, label %89
    i32 8, label %105
    i32 9, label %109
    i32 10, label %113
    i32 11, label %125
    i32 12, label %133
    i32 13, label %141
    i32 14, label %145
    i32 15, label %153
    i32 16, label %161
    i32 17, label %165
    i32 18, label %169
    i32 21, label %173
  ]

9:                                                ; preds = %2
  %10 = load ptr, ptr %5, align 8, !tbaa !12
  %11 = getelementptr inbounds ptr, ptr %10, i64 7
  %12 = load ptr, ptr %11, align 8
  call void %12(ptr noundef nonnull align 8 dereferenceable(20) %5)
  br label %181

13:                                               ; preds = %2
  %14 = load ptr, ptr %4, align 8, !tbaa !17
  %15 = getelementptr inbounds nuw %"struct.zmq::command_t", ptr %14, i32 0, i32 2
  %16 = getelementptr inbounds nuw %struct.anon.5, ptr %15, i32 0, i32 0
  %17 = load i64, ptr %16, align 16, !tbaa !22
  %18 = load ptr, ptr %5, align 8, !tbaa !12
  %19 = getelementptr inbounds ptr, ptr %18, i64 8
  %20 = load ptr, ptr %19, align 8
  call void %20(ptr noundef nonnull align 8 dereferenceable(20) %5, i64 noundef %17)
  br label %181

21:                                               ; preds = %2
  %22 = load ptr, ptr %5, align 8, !tbaa !12
  %23 = getelementptr inbounds ptr, ptr %22, i64 2
  %24 = load ptr, ptr %23, align 8
  call void %24(ptr noundef nonnull align 8 dereferenceable(20) %5)
  br label %181

25:                                               ; preds = %2
  %26 = load ptr, ptr %5, align 8, !tbaa !12
  %27 = getelementptr inbounds ptr, ptr %26, i64 3
  %28 = load ptr, ptr %27, align 8
  call void %28(ptr noundef nonnull align 8 dereferenceable(20) %5)
  %29 = load ptr, ptr %5, align 8, !tbaa !12
  %30 = getelementptr inbounds ptr, ptr %29, i64 22
  %31 = load ptr, ptr %30, align 8
  call void %31(ptr noundef nonnull align 8 dereferenceable(20) %5)
  br label %181

32:                                               ; preds = %2
  %33 = load ptr, ptr %4, align 8, !tbaa !17
  %34 = getelementptr inbounds nuw %"struct.zmq::command_t", ptr %33, i32 0, i32 2
  %35 = getelementptr inbounds nuw %struct.anon.1, ptr %34, i32 0, i32 0
  %36 = load ptr, ptr %35, align 16, !tbaa !22
  %37 = load ptr, ptr %5, align 8, !tbaa !12
  %38 = getelementptr inbounds ptr, ptr %37, i64 4
  %39 = load ptr, ptr %38, align 8
  call void %39(ptr noundef nonnull align 8 dereferenceable(20) %5, ptr noundef %36)
  %40 = load ptr, ptr %5, align 8, !tbaa !12
  %41 = getelementptr inbounds ptr, ptr %40, i64 22
  %42 = load ptr, ptr %41, align 8
  call void %42(ptr noundef nonnull align 8 dereferenceable(20) %5)
  br label %181

43:                                               ; preds = %2
  %44 = load ptr, ptr %4, align 8, !tbaa !17
  %45 = getelementptr inbounds nuw %"struct.zmq::command_t", ptr %44, i32 0, i32 2
  %46 = getelementptr inbounds nuw %struct.anon.2, ptr %45, i32 0, i32 0
  %47 = load ptr, ptr %46, align 16, !tbaa !22
  %48 = load ptr, ptr %5, align 8, !tbaa !12
  %49 = getelementptr inbounds ptr, ptr %48, i64 5
  %50 = load ptr, ptr %49, align 8
  call void %50(ptr noundef nonnull align 8 dereferenceable(20) %5, ptr noundef %47)
  %51 = load ptr, ptr %5, align 8, !tbaa !12
  %52 = getelementptr inbounds ptr, ptr %51, i64 22
  %53 = load ptr, ptr %52, align 8
  call void %53(ptr noundef nonnull align 8 dereferenceable(20) %5)
  br label %181

54:                                               ; preds = %2
  %55 = load ptr, ptr %4, align 8, !tbaa !17
  %56 = getelementptr inbounds nuw %"struct.zmq::command_t", ptr %55, i32 0, i32 2
  %57 = getelementptr inbounds nuw %struct.anon.3, ptr %56, i32 0, i32 0
  %58 = load ptr, ptr %57, align 16, !tbaa !22
  %59 = load ptr, ptr %5, align 8, !tbaa !12
  %60 = getelementptr inbounds ptr, ptr %59, i64 6
  %61 = load ptr, ptr %60, align 8
  call void %61(ptr noundef nonnull align 8 dereferenceable(20) %5, ptr noundef %58)
  %62 = load ptr, ptr %5, align 8, !tbaa !12
  %63 = getelementptr inbounds ptr, ptr %62, i64 22
  %64 = load ptr, ptr %63, align 8
  call void %64(ptr noundef nonnull align 8 dereferenceable(20) %5)
  br label %181

65:                                               ; preds = %2
  %66 = load ptr, ptr %4, align 8, !tbaa !17
  %67 = getelementptr inbounds nuw %"struct.zmq::command_t", ptr %66, i32 0, i32 2
  %68 = getelementptr inbounds nuw %struct.anon.6, ptr %67, i32 0, i32 0
  %69 = load ptr, ptr %68, align 16, !tbaa !22
  %70 = load ptr, ptr %5, align 8, !tbaa !12
  %71 = getelementptr inbounds ptr, ptr %70, i64 9
  %72 = load ptr, ptr %71, align 8
  call void %72(ptr noundef nonnull align 8 dereferenceable(20) %5, ptr noundef %69)
  br label %181

73:                                               ; preds = %2
  %74 = load ptr, ptr %4, align 8, !tbaa !17
  %75 = getelementptr inbounds nuw %"struct.zmq::command_t", ptr %74, i32 0, i32 2
  %76 = getelementptr inbounds nuw %struct.anon.16, ptr %75, i32 0, i32 0
  %77 = load i64, ptr %76, align 16, !tbaa !22
  %78 = load ptr, ptr %4, align 8, !tbaa !17
  %79 = getelementptr inbounds nuw %"struct.zmq::command_t", ptr %78, i32 0, i32 2
  %80 = getelementptr inbounds nuw %struct.anon.16, ptr %79, i32 0, i32 1
  %81 = load ptr, ptr %80, align 8, !tbaa !22
  %82 = load ptr, ptr %4, align 8, !tbaa !17
  %83 = getelementptr inbounds nuw %"struct.zmq::command_t", ptr %82, i32 0, i32 2
  %84 = getelementptr inbounds nuw %struct.anon.16, ptr %83, i32 0, i32 2
  %85 = load ptr, ptr %84, align 16, !tbaa !22
  %86 = load ptr, ptr %5, align 8, !tbaa !12
  %87 = getelementptr inbounds ptr, ptr %86, i64 10
  %88 = load ptr, ptr %87, align 8
  call void %88(ptr noundef nonnull align 8 dereferenceable(20) %5, i64 noundef %77, ptr noundef %81, ptr noundef %85)
  br label %181

89:                                               ; preds = %2
  %90 = load ptr, ptr %4, align 8, !tbaa !17
  %91 = getelementptr inbounds nuw %"struct.zmq::command_t", ptr %90, i32 0, i32 2
  %92 = getelementptr inbounds nuw %struct.anon.17, ptr %91, i32 0, i32 0
  %93 = load i64, ptr %92, align 16, !tbaa !22
  %94 = load ptr, ptr %4, align 8, !tbaa !17
  %95 = getelementptr inbounds nuw %"struct.zmq::command_t", ptr %94, i32 0, i32 2
  %96 = getelementptr inbounds nuw %struct.anon.17, ptr %95, i32 0, i32 1
  %97 = load i64, ptr %96, align 8, !tbaa !22
  %98 = load ptr, ptr %4, align 8, !tbaa !17
  %99 = getelementptr inbounds nuw %"struct.zmq::command_t", ptr %98, i32 0, i32 2
  %100 = getelementptr inbounds nuw %struct.anon.17, ptr %99, i32 0, i32 2
  %101 = load ptr, ptr %100, align 16, !tbaa !22
  %102 = load ptr, ptr %5, align 8, !tbaa !12
  %103 = getelementptr inbounds ptr, ptr %102, i64 11
  %104 = load ptr, ptr %103, align 8
  call void %104(ptr noundef nonnull align 8 dereferenceable(20) %5, i64 noundef %93, i64 noundef %97, ptr noundef %101)
  br label %181

105:                                              ; preds = %2
  %106 = load ptr, ptr %5, align 8, !tbaa !12
  %107 = getelementptr inbounds ptr, ptr %106, i64 12
  %108 = load ptr, ptr %107, align 8
  call void %108(ptr noundef nonnull align 8 dereferenceable(20) %5)
  br label %181

109:                                              ; preds = %2
  %110 = load ptr, ptr %5, align 8, !tbaa !12
  %111 = getelementptr inbounds ptr, ptr %110, i64 13
  %112 = load ptr, ptr %111, align 8
  call void %112(ptr noundef nonnull align 8 dereferenceable(20) %5)
  br label %181

113:                                              ; preds = %2
  %114 = load ptr, ptr %4, align 8, !tbaa !17
  %115 = getelementptr inbounds nuw %"struct.zmq::command_t", ptr %114, i32 0, i32 2
  %116 = getelementptr inbounds nuw %struct.anon.9, ptr %115, i32 0, i32 0
  %117 = load i32, ptr %116, align 16, !tbaa !22
  %118 = load ptr, ptr %4, align 8, !tbaa !17
  %119 = getelementptr inbounds nuw %"struct.zmq::command_t", ptr %118, i32 0, i32 2
  %120 = getelementptr inbounds nuw %struct.anon.9, ptr %119, i32 0, i32 1
  %121 = load i32, ptr %120, align 4, !tbaa !22
  %122 = load ptr, ptr %5, align 8, !tbaa !12
  %123 = getelementptr inbounds ptr, ptr %122, i64 14
  %124 = load ptr, ptr %123, align 8
  call void %124(ptr noundef nonnull align 8 dereferenceable(20) %5, i32 noundef %117, i32 noundef %121)
  br label %181

125:                                              ; preds = %2
  %126 = load ptr, ptr %4, align 8, !tbaa !17
  %127 = getelementptr inbounds nuw %"struct.zmq::command_t", ptr %126, i32 0, i32 2
  %128 = getelementptr inbounds nuw %struct.anon.10, ptr %127, i32 0, i32 0
  %129 = load ptr, ptr %128, align 16, !tbaa !22
  %130 = load ptr, ptr %5, align 8, !tbaa !12
  %131 = getelementptr inbounds ptr, ptr %130, i64 15
  %132 = load ptr, ptr %131, align 8
  call void %132(ptr noundef nonnull align 8 dereferenceable(20) %5, ptr noundef %129)
  br label %181

133:                                              ; preds = %2
  %134 = load ptr, ptr %4, align 8, !tbaa !17
  %135 = getelementptr inbounds nuw %"struct.zmq::command_t", ptr %134, i32 0, i32 2
  %136 = getelementptr inbounds nuw %struct.anon.11, ptr %135, i32 0, i32 0
  %137 = load i32, ptr %136, align 16, !tbaa !22
  %138 = load ptr, ptr %5, align 8, !tbaa !12
  %139 = getelementptr inbounds ptr, ptr %138, i64 16
  %140 = load ptr, ptr %139, align 8
  call void %140(ptr noundef nonnull align 8 dereferenceable(20) %5, i32 noundef %137)
  br label %181

141:                                              ; preds = %2
  %142 = load ptr, ptr %5, align 8, !tbaa !12
  %143 = getelementptr inbounds ptr, ptr %142, i64 17
  %144 = load ptr, ptr %143, align 8
  call void %144(ptr noundef nonnull align 8 dereferenceable(20) %5)
  br label %181

145:                                              ; preds = %2
  %146 = load ptr, ptr %4, align 8, !tbaa !17
  %147 = getelementptr inbounds nuw %"struct.zmq::command_t", ptr %146, i32 0, i32 2
  %148 = getelementptr inbounds nuw %struct.anon.13, ptr %147, i32 0, i32 0
  %149 = load ptr, ptr %148, align 16, !tbaa !22
  %150 = load ptr, ptr %5, align 8, !tbaa !12
  %151 = getelementptr inbounds ptr, ptr %150, i64 18
  %152 = load ptr, ptr %151, align 8
  call void %152(ptr noundef nonnull align 8 dereferenceable(20) %5, ptr noundef %149)
  br label %181

153:                                              ; preds = %2
  %154 = load ptr, ptr %4, align 8, !tbaa !17
  %155 = getelementptr inbounds nuw %"struct.zmq::command_t", ptr %154, i32 0, i32 2
  %156 = getelementptr inbounds nuw %struct.anon.14, ptr %155, i32 0, i32 0
  %157 = load ptr, ptr %156, align 16, !tbaa !22
  %158 = load ptr, ptr %5, align 8, !tbaa !12
  %159 = getelementptr inbounds ptr, ptr %158, i64 19
  %160 = load ptr, ptr %159, align 8
  call void %160(ptr noundef nonnull align 8 dereferenceable(20) %5, ptr noundef %157)
  br label %181

161:                                              ; preds = %2
  %162 = load ptr, ptr %5, align 8, !tbaa !12
  %163 = getelementptr inbounds ptr, ptr %162, i64 20
  %164 = load ptr, ptr %163, align 8
  call void %164(ptr noundef nonnull align 8 dereferenceable(20) %5)
  br label %181

165:                                              ; preds = %2
  %166 = load ptr, ptr %5, align 8, !tbaa !12
  %167 = getelementptr inbounds ptr, ptr %166, i64 22
  %168 = load ptr, ptr %167, align 8
  call void %168(ptr noundef nonnull align 8 dereferenceable(20) %5)
  br label %181

169:                                              ; preds = %2
  %170 = load ptr, ptr %5, align 8, !tbaa !12
  %171 = getelementptr inbounds ptr, ptr %170, i64 21
  %172 = load ptr, ptr %171, align 8
  call void %172(ptr noundef nonnull align 8 dereferenceable(20) %5)
  br label %181

173:                                              ; preds = %2
  br label %174

174:                                              ; preds = %2, %173
  br label %175

175:                                              ; preds = %174
  %176 = load ptr, ptr @stderr, align 8, !tbaa !23
  %177 = call i32 (ptr, ptr, ...) @fprintf(ptr noundef %176, ptr noundef @.str, ptr noundef @.str.1, ptr noundef @.str.2, i32 noundef 142) #6
  %178 = load ptr, ptr @stderr, align 8, !tbaa !23
  %179 = call i32 @fflush(ptr noundef %178)
  call void @_ZN3zmq9zmq_abortEPKc(ptr noundef @.str.1)
  br label %180

180:                                              ; preds = %175
  br label %181

181:                                              ; preds = %180, %169, %165, %161, %153, %145, %141, %133, %125, %113, %109, %105, %89, %73, %65, %54, %43, %32, %25, %21, %13, %9
  ret void
}