; Function Attrs: mustprogress uwtable
define void @_ZN3zmq8object_t15process_commandERKNS_9command_tE(ptr noundef nonnull align 8 dereferenceable(20) %0, ptr noundef nonnull readonly align 64 captures(none) dereferenceable(64) %1) local_unnamed_addr #6 align 2 {
  %3 = getelementptr inbounds nuw i8, ptr %1, i64 8
  %4 = load i32, ptr %3, align 8, !tbaa !13
  switch i32 %4, label %135 [
    i32 5, label %5
    i32 6, label %9
    i32 0, label %15
    i32 1, label %19
    i32 2, label %26
    i32 3, label %35
    i32 4, label %44
    i32 7, label %53
    i32 19, label %59
    i32 20, label %69
    i32 8, label %79
    i32 9, label %83
    i32 10, label %87
    i32 11, label %95
    i32 12, label %101
    i32 13, label %107
    i32 14, label %111
    i32 15, label %117
    i32 16, label %123
    i32 17, label %127
    i32 18, label %131
  ]

5:                                                ; preds = %2
  %6 = load ptr, ptr %0, align 8, !tbaa !3
  %7 = getelementptr inbounds nuw i8, ptr %6, i64 56
  %8 = load ptr, ptr %7, align 8
  tail call void %8(ptr noundef nonnull align 8 dereferenceable(20) %0)
  br label %140

9:                                                ; preds = %2
  %10 = getelementptr inbounds nuw i8, ptr %1, i64 16
  %11 = load i64, ptr %10, align 16, !tbaa !17
  %12 = load ptr, ptr %0, align 8, !tbaa !3
  %13 = getelementptr inbounds nuw i8, ptr %12, i64 64
  %14 = load ptr, ptr %13, align 8
  tail call void %14(ptr noundef nonnull align 8 dereferenceable(20) %0, i64 noundef %11)
  br label %140

15:                                               ; preds = %2
  %16 = load ptr, ptr %0, align 8, !tbaa !3
  %17 = getelementptr inbounds nuw i8, ptr %16, i64 16
  %18 = load ptr, ptr %17, align 8
  tail call void %18(ptr noundef nonnull align 8 dereferenceable(20) %0)
  br label %140

19:                                               ; preds = %2
  %20 = load ptr, ptr %0, align 8, !tbaa !3
  %21 = getelementptr inbounds nuw i8, ptr %20, i64 24
  %22 = load ptr, ptr %21, align 8
  tail call void %22(ptr noundef nonnull align 8 dereferenceable(20) %0)
  %23 = load ptr, ptr %0, align 8, !tbaa !3
  %24 = getelementptr inbounds nuw i8, ptr %23, i64 176
  %25 = load ptr, ptr %24, align 8
  tail call void %25(ptr noundef nonnull align 8 dereferenceable(20) %0)
  br label %140

26:                                               ; preds = %2
  %27 = getelementptr inbounds nuw i8, ptr %1, i64 16
  %28 = load ptr, ptr %27, align 16, !tbaa !17
  %29 = load ptr, ptr %0, align 8, !tbaa !3
  %30 = getelementptr inbounds nuw i8, ptr %29, i64 32
  %31 = load ptr, ptr %30, align 8
  tail call void %31(ptr noundef nonnull align 8 dereferenceable(20) %0, ptr noundef %28)
  %32 = load ptr, ptr %0, align 8, !tbaa !3
  %33 = getelementptr inbounds nuw i8, ptr %32, i64 176
  %34 = load ptr, ptr %33, align 8
  tail call void %34(ptr noundef nonnull align 8 dereferenceable(20) %0)
  br label %140

35:                                               ; preds = %2
  %36 = getelementptr inbounds nuw i8, ptr %1, i64 16
  %37 = load ptr, ptr %36, align 16, !tbaa !17
  %38 = load ptr, ptr %0, align 8, !tbaa !3
  %39 = getelementptr inbounds nuw i8, ptr %38, i64 40
  %40 = load ptr, ptr %39, align 8
  tail call void %40(ptr noundef nonnull align 8 dereferenceable(20) %0, ptr noundef %37)
  %41 = load ptr, ptr %0, align 8, !tbaa !3
  %42 = getelementptr inbounds nuw i8, ptr %41, i64 176
  %43 = load ptr, ptr %42, align 8
  tail call void %43(ptr noundef nonnull align 8 dereferenceable(20) %0)
  br label %140

44:                                               ; preds = %2
  %45 = getelementptr inbounds nuw i8, ptr %1, i64 16
  %46 = load ptr, ptr %45, align 16, !tbaa !17
  %47 = load ptr, ptr %0, align 8, !tbaa !3
  %48 = getelementptr inbounds nuw i8, ptr %47, i64 48
  %49 = load ptr, ptr %48, align 8
  tail call void %49(ptr noundef nonnull align 8 dereferenceable(20) %0, ptr noundef %46)
  %50 = load ptr, ptr %0, align 8, !tbaa !3
  %51 = getelementptr inbounds nuw i8, ptr %50, i64 176
  %52 = load ptr, ptr %51, align 8
  tail call void %52(ptr noundef nonnull align 8 dereferenceable(20) %0)
  br label %140

53:                                               ; preds = %2
  %54 = getelementptr inbounds nuw i8, ptr %1, i64 16
  %55 = load ptr, ptr %54, align 16, !tbaa !17
  %56 = load ptr, ptr %0, align 8, !tbaa !3
  %57 = getelementptr inbounds nuw i8, ptr %56, i64 72
  %58 = load ptr, ptr %57, align 8
  tail call void %58(ptr noundef nonnull align 8 dereferenceable(20) %0, ptr noundef %55)
  br label %140

59:                                               ; preds = %2
  %60 = getelementptr inbounds nuw i8, ptr %1, i64 16
  %61 = load i64, ptr %60, align 16, !tbaa !17
  %62 = getelementptr inbounds nuw i8, ptr %1, i64 24
  %63 = load ptr, ptr %62, align 8, !tbaa !17
  %64 = getelementptr inbounds nuw i8, ptr %1, i64 32
  %65 = load ptr, ptr %64, align 32, !tbaa !17
  %66 = load ptr, ptr %0, align 8, !tbaa !3
  %67 = getelementptr inbounds nuw i8, ptr %66, i64 80
  %68 = load ptr, ptr %67, align 8
  tail call void %68(ptr noundef nonnull align 8 dereferenceable(20) %0, i64 noundef %61, ptr noundef %63, ptr noundef %65)
  br label %140

69:                                               ; preds = %2
  %70 = getelementptr inbounds nuw i8, ptr %1, i64 16
  %71 = load i64, ptr %70, align 16, !tbaa !17
  %72 = getelementptr inbounds nuw i8, ptr %1, i64 24
  %73 = load i64, ptr %72, align 8, !tbaa !17
  %74 = getelementptr inbounds nuw i8, ptr %1, i64 32
  %75 = load ptr, ptr %74, align 32, !tbaa !17
  %76 = load ptr, ptr %0, align 8, !tbaa !3
  %77 = getelementptr inbounds nuw i8, ptr %76, i64 88
  %78 = load ptr, ptr %77, align 8
  tail call void %78(ptr noundef nonnull align 8 dereferenceable(20) %0, i64 noundef %71, i64 noundef %73, ptr noundef %75)
  br label %140

79:                                               ; preds = %2
  %80 = load ptr, ptr %0, align 8, !tbaa !3
  %81 = getelementptr inbounds nuw i8, ptr %80, i64 96
  %82 = load ptr, ptr %81, align 8
  tail call void %82(ptr noundef nonnull align 8 dereferenceable(20) %0)
  br label %140

83:                                               ; preds = %2
  %84 = load ptr, ptr %0, align 8, !tbaa !3
  %85 = getelementptr inbounds nuw i8, ptr %84, i64 104
  %86 = load ptr, ptr %85, align 8
  tail call void %86(ptr noundef nonnull align 8 dereferenceable(20) %0)
  br label %140

87:                                               ; preds = %2
  %88 = getelementptr inbounds nuw i8, ptr %1, i64 16
  %89 = load i32, ptr %88, align 16, !tbaa !17
  %90 = getelementptr inbounds nuw i8, ptr %1, i64 20
  %91 = load i32, ptr %90, align 4, !tbaa !17
  %92 = load ptr, ptr %0, align 8, !tbaa !3
  %93 = getelementptr inbounds nuw i8, ptr %92, i64 112
  %94 = load ptr, ptr %93, align 8
  tail call void %94(ptr noundef nonnull align 8 dereferenceable(20) %0, i32 noundef %89, i32 noundef %91)
  br label %140

95:                                               ; preds = %2
  %96 = getelementptr inbounds nuw i8, ptr %1, i64 16
  %97 = load ptr, ptr %96, align 16, !tbaa !17
  %98 = load ptr, ptr %0, align 8, !tbaa !3
  %99 = getelementptr inbounds nuw i8, ptr %98, i64 120
  %100 = load ptr, ptr %99, align 8
  tail call void %100(ptr noundef nonnull align 8 dereferenceable(20) %0, ptr noundef %97)
  br label %140

101:                                              ; preds = %2
  %102 = getelementptr inbounds nuw i8, ptr %1, i64 16
  %103 = load i32, ptr %102, align 16, !tbaa !17
  %104 = load ptr, ptr %0, align 8, !tbaa !3
  %105 = getelementptr inbounds nuw i8, ptr %104, i64 128
  %106 = load ptr, ptr %105, align 8
  tail call void %106(ptr noundef nonnull align 8 dereferenceable(20) %0, i32 noundef %103)
  br label %140

107:                                              ; preds = %2
  %108 = load ptr, ptr %0, align 8, !tbaa !3
  %109 = getelementptr inbounds nuw i8, ptr %108, i64 136
  %110 = load ptr, ptr %109, align 8
  tail call void %110(ptr noundef nonnull align 8 dereferenceable(20) %0)
  br label %140

111:                                              ; preds = %2
  %112 = getelementptr inbounds nuw i8, ptr %1, i64 16
  %113 = load ptr, ptr %112, align 16, !tbaa !17
  %114 = load ptr, ptr %0, align 8, !tbaa !3
  %115 = getelementptr inbounds nuw i8, ptr %114, i64 144
  %116 = load ptr, ptr %115, align 8
  tail call void %116(ptr noundef nonnull align 8 dereferenceable(20) %0, ptr noundef %113)
  br label %140

117:                                              ; preds = %2
  %118 = getelementptr inbounds nuw i8, ptr %1, i64 16
  %119 = load ptr, ptr %118, align 16, !tbaa !17
  %120 = load ptr, ptr %0, align 8, !tbaa !3
  %121 = getelementptr inbounds nuw i8, ptr %120, i64 152
  %122 = load ptr, ptr %121, align 8
  tail call void %122(ptr noundef nonnull align 8 dereferenceable(20) %0, ptr noundef %119)
  br label %140

123:                                              ; preds = %2
  %124 = load ptr, ptr %0, align 8, !tbaa !3
  %125 = getelementptr inbounds nuw i8, ptr %124, i64 160
  %126 = load ptr, ptr %125, align 8
  tail call void %126(ptr noundef nonnull align 8 dereferenceable(20) %0)
  br label %140

127:                                              ; preds = %2
  %128 = load ptr, ptr %0, align 8, !tbaa !3
  %129 = getelementptr inbounds nuw i8, ptr %128, i64 176
  %130 = load ptr, ptr %129, align 8
  tail call void %130(ptr noundef nonnull align 8 dereferenceable(20) %0)
  br label %140

131:                                              ; preds = %2
  %132 = load ptr, ptr %0, align 8, !tbaa !3
  %133 = getelementptr inbounds nuw i8, ptr %132, i64 168
  %134 = load ptr, ptr %133, align 8
  tail call void %134(ptr noundef nonnull align 8 dereferenceable(20) %0)
  br label %140

135:                                              ; preds = %2
  %136 = load ptr, ptr @stderr, align 8, !tbaa !18
  %137 = tail call i32 (ptr, ptr, ...) @fprintf(ptr noundef %136, ptr noundef nonnull @.str, ptr noundef nonnull @.str.1, ptr noundef nonnull @.str.2, i32 noundef 142) #13
  %138 = load ptr, ptr @stderr, align 8, !tbaa !18
  %139 = tail call i32 @fflush(ptr noundef %138)
  tail call void @_ZN3zmq9zmq_abortEPKc(ptr noundef nonnull @.str.1)
  br label %140

140:                                              ; preds = %135, %131, %127, %123, %117, %111, %107, %101, %95, %87, %83, %79, %69, %59, %53, %44, %35, %26, %19, %15, %9, %5
  ret void
}